; Function Attrs: mustprogress uwtable
define void @_ZN9grpc_core21promise_filter_detail12BaseCallData4DropEt(ptr nocapture noundef nonnull readonly align 8 dereferenceable(120) %this, i16 zeroext %0) unnamed_addr #3 align 2 {
entry:
  %call_stack_ = getelementptr inbounds i8, ptr %this, i64 16
  %1 = load ptr, ptr %call_stack_, align 8
  %2 = atomicrmw sub ptr %1, i64 1 acq_rel, align 8
  %cmp.i.i = icmp eq i64 %2, 1
  br i1 %cmp.i.i, label %if.then.i, label %_Z17grpc_stream_unrefP20grpc_stream_refcount.exit

if.then.i:                                        ; preds = %entry
  tail call void @_Z19grpc_stream_destroyP20grpc_stream_refcount(ptr noundef nonnull %1)
  br label %_Z17grpc_stream_unrefP20grpc_stream_refcount.exit

_Z17grpc_stream_unrefP20grpc_stream_refcount.exit: ; preds = %entry, %if.then.i
  ret void
}